target datalayout = "e-m:e-p270:32:32-p271:32:32-p272:64:64-i64:64-i128:128-f80:128-n8:16:32:64-S128"
target triple = "x86_64-pc-linux-gnu"

%struct._lv_event_t = type { ptr, ptr, i32, ptr, ptr, ptr, i8 }
%struct._lv_array_t = type { ptr, i32, i32, i32, i8 }
%struct.lv_event_list_t = type { %struct._lv_array_t, i8 }
%struct._lv_event_dsc_t = type { ptr, ptr, i32 }

; Function Attrs: nounwind uwtable
define internal void @cleanup_event_list(ptr noundef %0) #0 {
  %2 = alloca ptr, align 8
  store ptr %0, ptr %2, align 8, !tbaa !33
  %3 = load ptr, ptr %2, align 8, !tbaa !33
  %4 = getelementptr inbounds nuw %struct.lv_event_list_t, ptr %3, i32 0, i32 1
  %5 = load i8, ptr %4, align 8
  %6 = and i8 %5, 1
  %7 = icmp ne i8 %6, 0
  br i1 %7, label %8, label %9

8:                                                ; preds = %1
  br label %26

9:                                                ; preds = %1
  %10 = load ptr, ptr %2, align 8, !tbaa !33
  %11 = getelementptr inbounds nuw %struct.lv_event_list_t, ptr %10, i32 0, i32 1
  %12 = load i8, ptr %11, align 8
  %13 = lshr i8 %12, 1
  %14 = and i8 %13, 1
  %15 = zext i8 %14 to i32
  %16 = icmp eq i32 %15, 0
  br i1 %16, label %17, label %18

17:                                               ; preds = %9
  br label %26

18:                                               ; preds = %9
  %19 = load ptr, ptr %2, align 8, !tbaa !33
  %20 = getelementptr inbounds nuw %struct.lv_event_list_t, ptr %19, i32 0, i32 0
  call void @cleanup_event_list_core(ptr noundef %20)
  %21 = load ptr, ptr %2, align 8, !tbaa !33
  %22 = getelementptr inbounds nuw %struct.lv_event_list_t, ptr %21, i32 0, i32 1
  %23 = load i8, ptr %22, align 8
  %24 = and i8 %23, -3
  %25 = or i8 %24, 0
  store i8 %25, ptr %22, align 8
  br label %26

26:                                               ; preds = %18, %17, %8
  ret void
}

; Function Attrs: nounwind uwtable
define internal zeroext i1 @event_is_marked_deleting(ptr noundef %0) #0 {
  %2 = alloca ptr, align 8
  store ptr %0, ptr %2, align 8, !tbaa !38
  %3 = load ptr, ptr %2, align 8, !tbaa !38
  %4 = getelementptr inbounds nuw %struct._lv_event_dsc_t, ptr %3, i32 0, i32 2
  %5 = load i32, ptr %4, align 8, !tbaa !42
  %6 = and i32 %5, 65536
  %7 = icmp ne i32 %6, 0
  ret i1 %7
}

; Function Attrs: nounwind uwtable
define internal ptr @event_array_at(ptr noundef %0, i32 noundef %1) #0 {
  %3 = alloca ptr, align 8
  %4 = alloca i32, align 4
  store ptr %0, ptr %3, align 8, !tbaa !33
  store i32 %1, ptr %4, align 4, !tbaa !37
  %5 = load ptr, ptr %3, align 8, !tbaa !33
  %6 = getelementptr inbounds nuw %struct.lv_event_list_t, ptr %5, i32 0, i32 0
  %7 = load i32, ptr %4, align 4, !tbaa !37
  %8 = call ptr @lv_array_at(ptr noundef %6, i32 noundef %7)
  ret ptr %8
}

; Function Attrs: nounwind uwtable
define internal i32 @event_array_size(ptr noundef %0) #0 {
  %2 = alloca ptr, align 8
  store ptr %0, ptr %2, align 8, !tbaa !33
  %3 = load ptr, ptr %2, align 8, !tbaa !33
  %4 = getelementptr inbounds nuw %struct.lv_event_list_t, ptr %3, i32 0, i32 0
  %5 = call i32 @lv_array_size(ptr noundef %4)
  ret i32 %5
}

; Function Attrs: nounwind uwtable
define i32 @lv_event_send(ptr noundef %0, ptr noundef %1, i1 noundef zeroext %2) #0 {
  %4 = alloca i32, align 4
  %5 = alloca ptr, align 8
  %6 = alloca ptr, align 8
  %7 = alloca i8, align 1
  %8 = alloca %struct._lv_array_t, align 8
  %9 = alloca i8, align 1
  %10 = alloca i32, align 4
  %11 = alloca i32, align 4
  %12 = alloca i32, align 4
  %13 = alloca i32, align 4
  %14 = alloca ptr, align 8
  %15 = alloca i8, align 1
  %16 = alloca i32, align 4
  store ptr %0, ptr %5, align 8, !tbaa !33
  store ptr %1, ptr %6, align 8, !tbaa !3
  %17 = zext i1 %2 to i8
  store i8 %17, ptr %7, align 1, !tbaa !34
  %18 = load ptr, ptr %5, align 8, !tbaa !33
  %19 = icmp eq ptr %18, null
  br i1 %19, label %20, label %21

20:                                               ; preds = %3
  store i32 1, ptr %4, align 4
  br label %157

21:                                               ; preds = %3
  %22 = load ptr, ptr %6, align 8, !tbaa !3
  %23 = getelementptr inbounds nuw %struct._lv_event_t, ptr %22, i32 0, i32 6
  %24 = load i8, ptr %23, align 8
  %25 = and i8 %24, 1
  %26 = icmp ne i8 %25, 0
  br i1 %26, label %27, label %28

27:                                               ; preds = %21
  store i32 0, ptr %4, align 4
  br label %157

28:                                               ; preds = %21
  call void @llvm.lifetime.start.p0(i64 24, ptr %8) #4
  %29 = load ptr, ptr %5, align 8, !tbaa !33
  %30 = getelementptr inbounds nuw %struct.lv_event_list_t, ptr %29, i32 0, i32 0
  call void @llvm.memcpy.p0.p0.i64(ptr align 8 %8, ptr align 8 %30, i64 24, i1 false), !tbaa.struct !35
  call void @llvm.lifetime.start.p0(i64 1, ptr %9) #4
  %31 = load ptr, ptr %5, align 8, !tbaa !33
  %32 = getelementptr inbounds nuw %struct.lv_event_list_t, ptr %31, i32 0, i32 1
  %33 = load i8, ptr %32, align 8
  %34 = and i8 %33, 1
  %35 = icmp ne i8 %34, 0
  %36 = zext i1 %35 to i8
  store i8 %36, ptr %9, align 1, !tbaa !34
  %37 = load ptr, ptr %5, align 8, !tbaa !33
  %38 = getelementptr inbounds nuw %struct.lv_event_list_t, ptr %37, i32 0, i32 1
  %39 = load i8, ptr %38, align 8
  %40 = and i8 %39, -2
  %41 = or i8 %40, 1
  store i8 %41, ptr %38, align 8
  call void @llvm.lifetime.start.p0(i64 4, ptr %10) #4
  store i32 1, ptr %10, align 4, !tbaa !37
  call void @llvm.lifetime.start.p0(i64 4, ptr %11) #4
  %42 = load ptr, ptr %5, align 8, !tbaa !33
  %43 = call i32 @event_array_size(ptr noundef %42)
  store i32 %43, ptr %11, align 4, !tbaa !37
  call void @llvm.lifetime.start.p0(i64 4, ptr %12) #4
  store i32 0, ptr %12, align 4, !tbaa !37
  br label %44

44:                                               ; preds = %131, %28
  %45 = load i32, ptr %12, align 4, !tbaa !37
  %46 = load i32, ptr %11, align 4, !tbaa !37
  %47 = icmp ult i32 %45, %46
  br i1 %47, label %48, label %55

48:                                               ; preds = %44
  %49 = load ptr, ptr %6, align 8, !tbaa !3
  %50 = getelementptr inbounds nuw %struct._lv_event_t, ptr %49, i32 0, i32 6
  %51 = load i8, ptr %50, align 8
  %52 = and i8 %51, 1
  %53 = icmp ne i8 %52, 0
  %54 = xor i1 %53, true
  br label %55

55:                                               ; preds = %48, %44
  %56 = phi i1 [ false, %44 ], [ %54, %48 ]
  br i1 %56, label %58, label %57

57:                                               ; preds = %55
  store i32 2, ptr %13, align 4
  br label %134

58:                                               ; preds = %55
  call void @llvm.lifetime.start.p0(i64 8, ptr %14) #4
  %59 = load ptr, ptr %5, align 8, !tbaa !33
  %60 = load i32, ptr %12, align 4, !tbaa !37
  %61 = call ptr @event_array_at(ptr noundef %59, i32 noundef %60)
  %62 = load ptr, ptr %61, align 8, !tbaa !38
  store ptr %62, ptr %14, align 8, !tbaa !38
  %63 = load ptr, ptr %14, align 8, !tbaa !38
  %64 = getelementptr inbounds nuw %struct._lv_event_dsc_t, ptr %63, i32 0, i32 0
  %65 = load ptr, ptr %64, align 8, !tbaa !40
  %66 = icmp eq ptr %65, null
  br i1 %66, label %67, label %68

67:                                               ; preds = %58
  store i32 4, ptr %13, align 4
  br label %128

68:                                               ; preds = %58
  %69 = load ptr, ptr %14, align 8, !tbaa !38
  %70 = call zeroext i1 @event_is_marked_deleting(ptr noundef %69)
  br i1 %70, label %71, label %72

71:                                               ; preds = %68
  store i32 4, ptr %13, align 4
  br label %128

72:                                               ; preds = %68
  call void @llvm.lifetime.start.p0(i64 1, ptr %15) #4
  %73 = load ptr, ptr %14, align 8, !tbaa !38
  %74 = getelementptr inbounds nuw %struct._lv_event_dsc_t, ptr %73, i32 0, i32 2
  %75 = load i32, ptr %74, align 8, !tbaa !42
  %76 = and i32 %75, 32768
  %77 = icmp ne i32 %76, 0
  %78 = zext i1 %77 to i8
  store i8 %78, ptr %15, align 1, !tbaa !34
  %79 = load i8, ptr %15, align 1, !tbaa !34, !range !43, !noundef !44
  %80 = trunc i8 %79 to i1
  %81 = zext i1 %80 to i32
  %82 = load i8, ptr %7, align 1, !tbaa !34, !range !43, !noundef !44
  %83 = trunc i8 %82 to i1
  %84 = zext i1 %83 to i32
  %85 = icmp ne i32 %81, %84
  br i1 %85, label %86, label %87

86:                                               ; preds = %72
  store i32 4, ptr %13, align 4
  br label %127

87:                                               ; preds = %72
  call void @llvm.lifetime.start.p0(i64 4, ptr %16) #4
  %88 = load ptr, ptr %14, align 8, !tbaa !38
  %89 = getelementptr inbounds nuw %struct._lv_event_dsc_t, ptr %88, i32 0, i32 2
  %90 = load i32, ptr %89, align 8, !tbaa !42
  %91 = and i32 %90, -32769
  store i32 %91, ptr %16, align 4, !tbaa !37
  %92 = load i32, ptr %16, align 4, !tbaa !37
  %93 = icmp eq i32 %92, 0
  br i1 %93, label %100, label %94

94:                                               ; preds = %87
  %95 = load i32, ptr %16, align 4, !tbaa !37
  %96 = load ptr, ptr %6, align 8, !tbaa !3
  %97 = getelementptr inbounds nuw %struct._lv_event_t, ptr %96, i32 0, i32 2
  %98 = load i32, ptr %97, align 8, !tbaa !45
  %99 = icmp eq i32 %95, %98
  br i1 %99, label %100, label %125

100:                                              ; preds = %94, %87
  %101 = load ptr, ptr %14, align 8, !tbaa !38
  %102 = getelementptr inbounds nuw %struct._lv_event_dsc_t, ptr %101, i32 0, i32 1
  %103 = load ptr, ptr %102, align 8, !tbaa !46
  %104 = load ptr, ptr %6, align 8, !tbaa !3
  %105 = getelementptr inbounds nuw %struct._lv_event_t, ptr %104, i32 0, i32 3
  store ptr %103, ptr %105, align 8, !tbaa !47
  %106 = load ptr, ptr %14, align 8, !tbaa !38
  %107 = getelementptr inbounds nuw %struct._lv_event_dsc_t, ptr %106, i32 0, i32 0
  %108 = load ptr, ptr %107, align 8, !tbaa !40
  %109 = load ptr, ptr %6, align 8, !tbaa !3
  call void %108(ptr noundef %109)
  %110 = load ptr, ptr %6, align 8, !tbaa !3
  %111 = getelementptr inbounds nuw %struct._lv_event_t, ptr %110, i32 0, i32 6
  %112 = load i8, ptr %111, align 8
  %113 = lshr i8 %112, 1
  %114 = and i8 %113, 1
  %115 = icmp ne i8 %114, 0
  br i1 %115, label %116, label %117

116:                                              ; preds = %100
  store i32 2, ptr %13, align 4
  br label %126

117:                                              ; preds = %100
  %118 = load ptr, ptr %6, align 8, !tbaa !3
  %119 = getelementptr inbounds nuw %struct._lv_event_t, ptr %118, i32 0, i32 6
  %120 = load i8, ptr %119, align 8
  %121 = and i8 %120, 1
  %122 = icmp ne i8 %121, 0
  br i1 %122, label %123, label %124

123:                                              ; preds = %117
  store i32 0, ptr %10, align 4, !tbaa !37
  store i32 2, ptr %13, align 4
  br label %126

124:                                              ; preds = %117
  br label %125

125:                                              ; preds = %124, %94
  store i32 0, ptr %13, align 4
  br label %126

126:                                              ; preds = %125, %123, %116
  call void @llvm.lifetime.end.p0(i64 4, ptr %16) #4
  br label %127

127:                                              ; preds = %126, %86
  call void @llvm.lifetime.end.p0(i64 1, ptr %15) #4
  br label %128

128:                                              ; preds = %127, %71, %67
  call void @llvm.lifetime.end.p0(i64 8, ptr %14) #4
  %129 = load i32, ptr %13, align 4
  switch i32 %129, label %134 [
    i32 0, label %130
    i32 4, label %131
  ]

130:                                              ; preds = %128
  br label %131

131:                                              ; preds = %130, %128
  %132 = load i32, ptr %12, align 4, !tbaa !37
  %133 = add i32 %132, 1
  store i32 %133, ptr %12, align 4, !tbaa !37
  br label %44, !llvm.loop !48

134:                                              ; preds = %128, %57
  call void @llvm.lifetime.end.p0(i64 4, ptr %12) #4
  br label %135

135:                                              ; preds = %134
  %136 = load i8, ptr %9, align 1, !tbaa !34, !range !43, !noundef !44
  %137 = trunc i8 %136 to i1
  br i1 %137, label %138, label %140

138:                                              ; preds = %135
  %139 = load i32, ptr %10, align 4, !tbaa !37
  store i32 %139, ptr %4, align 4
  store i32 1, ptr %13, align 4
  br label %156

140:                                              ; preds = %135
  %141 = load ptr, ptr %6, align 8, !tbaa !3
  %142 = getelementptr inbounds nuw %struct._lv_event_t, ptr %141, i32 0, i32 6
  %143 = load i8, ptr %142, align 8
  %144 = and i8 %143, 1
  %145 = icmp ne i8 %144, 0
  br i1 %145, label %146, label %147

146:                                              ; preds = %140
  call void @cleanup_event_list_core(ptr noundef %8)
  br label %154

147:                                              ; preds = %140
  %148 = load ptr, ptr %5, align 8, !tbaa !33
  %149 = getelementptr inbounds nuw %struct.lv_event_list_t, ptr %148, i32 0, i32 1
  %150 = load i8, ptr %149, align 8
  %151 = and i8 %150, -2
  %152 = or i8 %151, 0
  store i8 %152, ptr %149, align 8
  %153 = load ptr, ptr %5, align 8, !tbaa !33
  call void @cleanup_event_list(ptr noundef %153)
  br label %154

154:                                              ; preds = %147, %146
  %155 = load i32, ptr %10, align 4, !tbaa !37
  store i32 %155, ptr %4, align 4
  store i32 1, ptr %13, align 4
  br label %156

156:                                              ; preds = %154, %138
  call void @llvm.lifetime.end.p0(i64 4, ptr %11) #4
  call void @llvm.lifetime.end.p0(i64 4, ptr %10) #4
  call void @llvm.lifetime.end.p0(i64 1, ptr %9) #4
  call void @llvm.lifetime.end.p0(i64 24, ptr %8) #4
  br label %157

157:                                              ; preds = %156, %27, %20
  %158 = load i32, ptr %4, align 4
  ret i32 %158
}