; Function Attrs: nounwind uwtable
define range(i32 0, 2) i32 @lv_event_send(ptr noundef %0, ptr noundef %1, i1 noundef zeroext %2) local_unnamed_addr #2 {
  %4 = alloca %struct._lv_array_t, align 8
  %5 = icmp eq ptr %0, null
  br i1 %5, label %58, label %6

6:                                                ; preds = %3
  %7 = getelementptr inbounds nuw i8, ptr %1, i64 48
  %8 = load i8, ptr %7, align 8
  %9 = and i8 %8, 1
  %.not = icmp eq i8 %9, 0
  br i1 %.not, label %10, label %58

10:                                               ; preds = %6
  call void @llvm.lifetime.start.p0(i64 24, ptr nonnull %4) #12
  call void @llvm.memcpy.p0.p0.i64(ptr noundef nonnull align 8 dereferenceable(24) %4, ptr noundef nonnull align 8 dereferenceable(24) %0, i64 24, i1 false), !tbaa.struct !32
  %11 = getelementptr inbounds nuw i8, ptr %0, i64 24
  %12 = load i8, ptr %11, align 8
  %13 = and i8 %12, 1
  %.not42 = icmp eq i8 %13, 0
  %14 = or i8 %12, 1
  store i8 %14, ptr %11, align 8
  %15 = tail call i32 @lv_array_size(ptr noundef nonnull %0) #12
  %.not59 = icmp eq i32 %15, 0
  br i1 %.not59, label %.critedge, label %.lr.ph

.lr.ph:                                           ; preds = %10
  %16 = getelementptr inbounds nuw i8, ptr %1, i64 16
  %17 = getelementptr inbounds nuw i8, ptr %1, i64 24
  br label %18

18:                                               ; preds = %.lr.ph, %45
  %.03652 = phi i32 [ 0, %.lr.ph ], [ %46, %45 ]
  %19 = load i8, ptr %7, align 8
  %20 = and i8 %19, 1
  %.not43 = icmp eq i8 %20, 0
  br i1 %.not43, label %21, label %.critedge

21:                                               ; preds = %18
  %22 = tail call ptr @lv_array_at(ptr noundef nonnull %0, i32 noundef %.03652) #12
  %23 = load ptr, ptr %22, align 8, !tbaa !36
  %24 = load ptr, ptr %23, align 8, !tbaa !38
  %25 = icmp eq ptr %24, null
  br i1 %25, label %45, label %26

26:                                               ; preds = %21
  %27 = getelementptr i8, ptr %23, i64 16
  %.val = load i32, ptr %27, align 8, !tbaa !40
  %28 = and i32 %.val, 65536
  %.not51 = icmp eq i32 %28, 0
  br i1 %.not51, label %29, label %45

29:                                               ; preds = %26
  %30 = and i32 %.val, 32768
  %31 = icmp eq i32 %30, 0
  %.not44 = xor i1 %2, %31
  br i1 %.not44, label %32, label %45

32:                                               ; preds = %29
  %33 = and i32 %.val, -98305
  %34 = icmp eq i32 %33, 0
  br i1 %34, label %38, label %35

35:                                               ; preds = %32
  %36 = load i32, ptr %16, align 8, !tbaa !41
  %37 = icmp eq i32 %33, %36
  br i1 %37, label %38, label %45

38:                                               ; preds = %35, %32
  %39 = getelementptr inbounds nuw i8, ptr %23, i64 8
  %40 = load ptr, ptr %39, align 8, !tbaa !42
  store ptr %40, ptr %17, align 8, !tbaa !43
  tail call void %24(ptr noundef nonnull %1) #12
  %41 = load i8, ptr %7, align 8
  %42 = and i8 %41, 2
  %.not45 = icmp eq i8 %42, 0
  br i1 %.not45, label %43, label %.critedge

43:                                               ; preds = %38
  %44 = and i8 %41, 1
  %.not46 = icmp eq i8 %44, 0
  br i1 %.not46, label %45, label %.critedge

45:                                               ; preds = %35, %43, %21, %26, %29
  %46 = add nuw i32 %.03652, 1
  %exitcond.not = icmp eq i32 %46, %15
  br i1 %exitcond.not, label %.critedge, label %18, !llvm.loop !44

.critedge:                                        ; preds = %45, %18, %43, %38, %10
  %.135 = phi i32 [ 1, %10 ], [ 1, %38 ], [ 0, %43 ], [ 1, %18 ], [ 1, %45 ]
  br i1 %.not42, label %47, label %cleanup_event_list.exit

47:                                               ; preds = %.critedge
  %48 = load i8, ptr %7, align 8
  %49 = and i8 %48, 1
  %.not47 = icmp eq i8 %49, 0
  br i1 %.not47, label %51, label %50

50:                                               ; preds = %47
  call fastcc void @cleanup_event_list_core(ptr noundef %4)
  br label %cleanup_event_list.exit

51:                                               ; preds = %47
  %52 = load i8, ptr %11, align 8
  %53 = and i8 %52, -2
  store i8 %53, ptr %11, align 8
  %54 = and i8 %52, 2
  %or.cond.not.i.not = icmp eq i8 %54, 0
  br i1 %or.cond.not.i.not, label %cleanup_event_list.exit, label %55

55:                                               ; preds = %51
  tail call fastcc void @cleanup_event_list_core(ptr noundef nonnull %0)
  %56 = load i8, ptr %11, align 8
  %57 = and i8 %56, -3
  store i8 %57, ptr %11, align 8
  br label %cleanup_event_list.exit

cleanup_event_list.exit:                          ; preds = %55, %51, %50, %.critedge
  call void @llvm.lifetime.end.p0(i64 24, ptr nonnull %4) #12
  br label %58

58:                                               ; preds = %6, %3, %cleanup_event_list.exit
  %.0 = phi i32 [ %.135, %cleanup_event_list.exit ], [ 1, %3 ], [ 0, %6 ]
  ret i32 %.0
}